target datalayout = "e-m:e-p270:32:32-p271:32:32-p272:64:64-i64:64-i128:128-f80:128-n8:16:32:64-S128"
target triple = "x86_64-pc-linux-gnu"

%struct.ident_t = type { i32, i32, i32, i32, ptr }
%"class.ncnn::Mat" = type { ptr, ptr, i64, i32, ptr, i32, i32, i32, i32, i32, i64 }

@1 = private unnamed_addr constant %struct.ident_t { i32 0, i32 514, i32 0, i32 22, ptr @0 }, align 8

; Function Attrs: noinline noreturn nounwind uwtable
define linkonce_odr hidden void @__clang_call_terminate(ptr noundef %0) #6 comdat {
  %2 = call ptr @__cxa_begin_catch(ptr %0) #10
  call void @_ZSt9terminatev() #15
  unreachable
}

; Function Attrs: alwaysinline mustprogress nounwind uwtable
define linkonce_odr hidden noundef nonnull align 4 dereferenceable(4) ptr @_ZN4ncnn3MatixEm(ptr noundef nonnull align 8 dereferenceable(72) %0, i64 noundef %1) #3 comdat align 2 {
  %3 = alloca ptr, align 8
  %4 = alloca i64, align 8
  store ptr %0, ptr %3, align 8, !tbaa !45
  store i64 %1, ptr %4, align 8, !tbaa !69
  %5 = load ptr, ptr %3, align 8
  %6 = getelementptr inbounds nuw %"class.ncnn::Mat", ptr %5, i32 0, i32 0
  %7 = load ptr, ptr %6, align 8, !tbaa !58
  %8 = load i64, ptr %4, align 8, !tbaa !69
  %9 = getelementptr inbounds nuw float, ptr %7, i64 %8
  ret ptr %9
}

; Function Attrs: alwaysinline mustprogress nounwind uwtable
define linkonce_odr hidden noundef ptr @_ZN4ncnn3Mat3rowEi(ptr noundef nonnull align 8 dereferenceable(72) %0, i32 noundef %1) #3 comdat align 2 {
  %3 = alloca ptr, align 8
  %4 = alloca i32, align 4
  store ptr %0, ptr %3, align 8, !tbaa !45
  store i32 %1, ptr %4, align 4, !tbaa !40
  %5 = load ptr, ptr %3, align 8
  %6 = getelementptr inbounds nuw %"class.ncnn::Mat", ptr %5, i32 0, i32 0
  %7 = load ptr, ptr %6, align 8, !tbaa !58
  %8 = getelementptr inbounds nuw %"class.ncnn::Mat", ptr %5, i32 0, i32 6
  %9 = load i32, ptr %8, align 4, !tbaa !64
  %10 = sext i32 %9 to i64
  %11 = load i32, ptr %4, align 4, !tbaa !40
  %12 = sext i32 %11 to i64
  %13 = mul i64 %10, %12
  %14 = getelementptr inbounds nuw %"class.ncnn::Mat", ptr %5, i32 0, i32 2
  %15 = load i64, ptr %14, align 8, !tbaa !60
  %16 = mul i64 %13, %15
  %17 = getelementptr inbounds nuw i8, ptr %7, i64 %16
  ret ptr %17
}

; Function Attrs: alwaysinline norecurse nounwind uwtable
define internal void @_ZN4ncnnL4lstmERKNS_3MatERS0_iS2_S2_S2_S2_S3_S3_RKNS_6OptionE.omp_outlined.3(ptr noalias noundef %0, ptr noalias noundef %1, ptr noundef nonnull align 4 dereferenceable(4) %2, ptr noundef nonnull align 8 dereferenceable(72) %3, ptr noundef nonnull align 8 dereferenceable(72) %4, ptr noundef nonnull align 4 dereferenceable(4) %5, ptr noundef nonnull align 8 dereferenceable(72) %6, ptr noundef nonnull align 8 dereferenceable(8) %7, ptr noundef nonnull align 8 dereferenceable(72) %8) #9 personality ptr @__gxx_personality_v0 {
  %10 = alloca ptr, align 8
  %11 = alloca ptr, align 8
  %12 = alloca ptr, align 8
  %13 = alloca ptr, align 8
  %14 = alloca ptr, align 8
  %15 = alloca ptr, align 8
  %16 = alloca ptr, align 8
  %17 = alloca ptr, align 8
  %18 = alloca ptr, align 8
  %19 = alloca ptr, align 8
  %20 = alloca ptr, align 8
  %21 = alloca i32, align 4
  %22 = alloca i32, align 4
  %23 = alloca i32, align 4
  %24 = alloca i32, align 4
  %25 = alloca i32, align 4
  %26 = alloca i32, align 4
  %27 = alloca i32, align 4
  %28 = alloca i32, align 4
  %29 = alloca i32, align 4
  %30 = alloca ptr, align 8
  %31 = alloca float, align 4
  %32 = alloca float, align 4
  %33 = alloca float, align 4
  %34 = alloca float, align 4
  %35 = alloca float, align 4
  %36 = alloca float, align 4
  store ptr %0, ptr %10, align 8, !tbaa !85
  store ptr %1, ptr %11, align 8, !tbaa !85
  store ptr %2, ptr %12, align 8, !tbaa !85
  store ptr %3, ptr %13, align 8, !tbaa !45
  store ptr %4, ptr %14, align 8, !tbaa !45
  store ptr %5, ptr %15, align 8, !tbaa !85
  store ptr %6, ptr %16, align 8, !tbaa !45
  store ptr %7, ptr %17, align 8, !tbaa !86
  store ptr %8, ptr %18, align 8, !tbaa !45
  %37 = load ptr, ptr %12, align 8, !tbaa !85
  %38 = load ptr, ptr %13, align 8, !tbaa !45
  %39 = load ptr, ptr %14, align 8, !tbaa !45
  %40 = load ptr, ptr %15, align 8, !tbaa !85
  %41 = load ptr, ptr %16, align 8, !tbaa !45
  %42 = load ptr, ptr %17, align 8, !tbaa !86
  %43 = load ptr, ptr %18, align 8, !tbaa !45
  store ptr %39, ptr %19, align 8
  store ptr %41, ptr %20, align 8
  call void @llvm.lifetime.start.p0(i64 4, ptr %21) #10
  call void @llvm.lifetime.start.p0(i64 4, ptr %22) #10
  %44 = load i32, ptr %37, align 4, !tbaa !40
  store i32 %44, ptr %22, align 4, !tbaa !40
  call void @llvm.lifetime.start.p0(i64 4, ptr %23) #10
  %45 = load i32, ptr %22, align 4, !tbaa !40
  %46 = sub nsw i32 %45, 0
  %47 = sdiv i32 %46, 1
  %48 = sub nsw i32 %47, 1
  store i32 %48, ptr %23, align 4, !tbaa !40
  call void @llvm.lifetime.start.p0(i64 4, ptr %24) #10
  store i32 0, ptr %24, align 4, !tbaa !40
  call void @llvm.lifetime.end.p0(i64 4, ptr %24) #10
  %49 = load i32, ptr %22, align 4, !tbaa !40
  %50 = icmp slt i32 0, %49
  br i1 %50, label %51, label %154

51:                                               ; preds = %9
  call void @llvm.lifetime.start.p0(i64 4, ptr %25) #10
  store i32 0, ptr %25, align 4, !tbaa !40
  call void @llvm.lifetime.start.p0(i64 4, ptr %26) #10
  %52 = load i32, ptr %23, align 4, !tbaa !40
  store i32 %52, ptr %26, align 4, !tbaa !40
  call void @llvm.lifetime.start.p0(i64 4, ptr %27) #10
  store i32 1, ptr %27, align 4, !tbaa !40
  call void @llvm.lifetime.start.p0(i64 4, ptr %28) #10
  store i32 0, ptr %28, align 4, !tbaa !40
  call void @llvm.lifetime.start.p0(i64 4, ptr %29) #10
  %53 = load ptr, ptr %10, align 8
  %54 = load i32, ptr %53, align 4, !tbaa !40
  call void @__kmpc_for_static_init_4(ptr @1, i32 %54, i32 34, ptr %28, ptr %25, ptr %26, ptr %27, i32 1, i32 1)
  %55 = load i32, ptr %26, align 4, !tbaa !40
  %56 = load i32, ptr %23, align 4, !tbaa !40
  %57 = icmp sgt i32 %55, %56
  br i1 %57, label %58, label %60

58:                                               ; preds = %51
  %59 = load i32, ptr %23, align 4, !tbaa !40
  br label %62

60:                                               ; preds = %51
  %61 = load i32, ptr %26, align 4, !tbaa !40
  br label %62

62:                                               ; preds = %60, %58
  %63 = phi i32 [ %59, %58 ], [ %61, %60 ]
  store i32 %63, ptr %26, align 4, !tbaa !40
  %64 = load i32, ptr %25, align 4, !tbaa !40
  store i32 %64, ptr %21, align 4, !tbaa !40
  br label %65

65:                                               ; preds = %147, %62
  %66 = load i32, ptr %21, align 4, !tbaa !40
  %67 = load i32, ptr %26, align 4, !tbaa !40
  %68 = icmp sle i32 %66, %67
  br i1 %68, label %70, label %69

69:                                               ; preds = %65
  br label %150

70:                                               ; preds = %65
  %71 = load i32, ptr %21, align 4, !tbaa !40
  %72 = mul nsw i32 %71, 1
  %73 = add nsw i32 0, %72
  store i32 %73, ptr %29, align 4, !tbaa !40
  call void @llvm.lifetime.start.p0(i64 8, ptr %30) #10
  %74 = load i32, ptr %29, align 4, !tbaa !40
  %75 = invoke noundef ptr @_ZN4ncnn3Mat3rowEi(ptr noundef nonnull align 8 dereferenceable(72) %38, i32 noundef %74)
          to label %76 unwind label %155

76:                                               ; preds = %70
  store ptr %75, ptr %30, align 8, !tbaa !51
  call void @llvm.lifetime.start.p0(i64 4, ptr %31) #10
  %77 = load ptr, ptr %30, align 8, !tbaa !51
  %78 = getelementptr inbounds float, ptr %77, i64 0
  %79 = load float, ptr %78, align 4, !tbaa !70
  store float %79, ptr %31, align 4, !tbaa !70
  call void @llvm.lifetime.start.p0(i64 4, ptr %32) #10
  %80 = load ptr, ptr %30, align 8, !tbaa !51
  %81 = getelementptr inbounds float, ptr %80, i64 1
  %82 = load float, ptr %81, align 4, !tbaa !70
  store float %82, ptr %32, align 4, !tbaa !70
  call void @llvm.lifetime.start.p0(i64 4, ptr %33) #10
  %83 = load ptr, ptr %30, align 8, !tbaa !51
  %84 = getelementptr inbounds float, ptr %83, i64 2
  %85 = load float, ptr %84, align 4, !tbaa !70
  store float %85, ptr %33, align 4, !tbaa !70
  call void @llvm.lifetime.start.p0(i64 4, ptr %34) #10
  %86 = load ptr, ptr %30, align 8, !tbaa !51
  %87 = getelementptr inbounds float, ptr %86, i64 3
  %88 = load float, ptr %87, align 4, !tbaa !70
  store float %88, ptr %34, align 4, !tbaa !70
  %89 = load float, ptr %31, align 4, !tbaa !70
  %90 = fneg fast float %89
  %91 = call fast float @llvm.exp.f32(float %90)
  %92 = fadd fast float 1.000000e+00, %91
  %93 = fdiv fast float 1.000000e+00, %92
  store float %93, ptr %31, align 4, !tbaa !70
  %94 = load float, ptr %32, align 4, !tbaa !70
  %95 = fneg fast float %94
  %96 = call fast float @llvm.exp.f32(float %95)
  %97 = fadd fast float 1.000000e+00, %96
  %98 = fdiv fast float 1.000000e+00, %97
  store float %98, ptr %32, align 4, !tbaa !70
  %99 = load float, ptr %33, align 4, !tbaa !70
  %100 = fneg fast float %99
  %101 = call fast float @llvm.exp.f32(float %100)
  %102 = fadd fast float 1.000000e+00, %101
  %103 = fdiv fast float 1.000000e+00, %102
  store float %103, ptr %33, align 4, !tbaa !70
  %104 = load float, ptr %34, align 4, !tbaa !70
  %105 = call fast float @llvm.tanh.f32(float %104)
  store float %105, ptr %34, align 4, !tbaa !70
  call void @llvm.lifetime.start.p0(i64 4, ptr %35) #10
  %106 = load float, ptr %32, align 4, !tbaa !70
  %107 = load ptr, ptr %19, align 8, !tbaa !45
  %108 = load i32, ptr %29, align 4, !tbaa !40
  %109 = sext i32 %108 to i64
  %110 = call noundef nonnull align 4 dereferenceable(4) ptr @_ZN4ncnn3MatixEm(ptr noundef nonnull align 8 dereferenceable(72) %107, i64 noundef %109)
  %111 = load float, ptr %110, align 4, !tbaa !70
  %112 = fmul fast float %106, %111
  %113 = load float, ptr %31, align 4, !tbaa !70
  %114 = load float, ptr %34, align 4, !tbaa !70
  %115 = fmul fast float %113, %114
  %116 = fadd fast float %112, %115
  store float %116, ptr %35, align 4, !tbaa !70
  call void @llvm.lifetime.start.p0(i64 4, ptr %36) #10
  %117 = load float, ptr %33, align 4, !tbaa !70
  %118 = load float, ptr %35, align 4, !tbaa !70
  %119 = call fast float @llvm.tanh.f32(float %118)
  %120 = fmul fast float %117, %119
  store float %120, ptr %36, align 4, !tbaa !70
  %121 = load float, ptr %35, align 4, !tbaa !70
  %122 = load ptr, ptr %19, align 8, !tbaa !45
  %123 = load i32, ptr %29, align 4, !tbaa !40
  %124 = sext i32 %123 to i64
  %125 = call noundef nonnull align 4 dereferenceable(4) ptr @_ZN4ncnn3MatixEm(ptr noundef nonnull align 8 dereferenceable(72) %122, i64 noundef %124)
  store float %121, ptr %125, align 4, !tbaa !70
  %126 = load i32, ptr %40, align 4, !tbaa !40
  %127 = load i32, ptr %37, align 4, !tbaa !40
  %128 = icmp eq i32 %126, %127
  br i1 %128, label %129, label %140

129:                                              ; preds = %76
  %130 = load float, ptr %36, align 4, !tbaa !70
  %131 = load ptr, ptr %20, align 8, !tbaa !45
  %132 = load i32, ptr %29, align 4, !tbaa !40
  %133 = sext i32 %132 to i64
  %134 = call noundef nonnull align 4 dereferenceable(4) ptr @_ZN4ncnn3MatixEm(ptr noundef nonnull align 8 dereferenceable(72) %131, i64 noundef %133)
  store float %130, ptr %134, align 4, !tbaa !70
  %135 = load float, ptr %36, align 4, !tbaa !70
  %136 = load ptr, ptr %42, align 8, !tbaa !51
  %137 = load i32, ptr %29, align 4, !tbaa !40
  %138 = sext i32 %137 to i64
  %139 = getelementptr inbounds float, ptr %136, i64 %138
  store float %135, ptr %139, align 4, !tbaa !70
  br label %145

140:                                              ; preds = %76
  %141 = load float, ptr %36, align 4, !tbaa !70
  %142 = load i32, ptr %29, align 4, !tbaa !40
  %143 = sext i32 %142 to i64
  %144 = call noundef nonnull align 4 dereferenceable(4) ptr @_ZN4ncnn3MatixEm(ptr noundef nonnull align 8 dereferenceable(72) %43, i64 noundef %143)
  store float %141, ptr %144, align 4, !tbaa !70
  br label %145

145:                                              ; preds = %140, %129
  call void @llvm.lifetime.end.p0(i64 4, ptr %36) #10
  call void @llvm.lifetime.end.p0(i64 4, ptr %35) #10
  call void @llvm.lifetime.end.p0(i64 4, ptr %34) #10
  call void @llvm.lifetime.end.p0(i64 4, ptr %33) #10
  call void @llvm.lifetime.end.p0(i64 4, ptr %32) #10
  call void @llvm.lifetime.end.p0(i64 4, ptr %31) #10
  call void @llvm.lifetime.end.p0(i64 8, ptr %30) #10
  br label %146

146:                                              ; preds = %145
  br label %147

147:                                              ; preds = %146
  %148 = load i32, ptr %21, align 4, !tbaa !40
  %149 = add nsw i32 %148, 1
  store i32 %149, ptr %21, align 4, !tbaa !40
  br label %65

150:                                              ; preds = %69
  br label %151

151:                                              ; preds = %150
  %152 = load ptr, ptr %10, align 8
  %153 = load i32, ptr %152, align 4, !tbaa !40
  call void @__kmpc_for_static_fini(ptr @1, i32 %153)
  call void @llvm.lifetime.end.p0(i64 4, ptr %29) #10
  call void @llvm.lifetime.end.p0(i64 4, ptr %28) #10
  call void @llvm.lifetime.end.p0(i64 4, ptr %27) #10
  call void @llvm.lifetime.end.p0(i64 4, ptr %26) #10
  call void @llvm.lifetime.end.p0(i64 4, ptr %25) #10
  br label %154

154:                                              ; preds = %151, %9
  call void @llvm.lifetime.end.p0(i64 4, ptr %23) #10
  call void @llvm.lifetime.end.p0(i64 4, ptr %22) #10
  call void @llvm.lifetime.end.p0(i64 4, ptr %21) #10
  ret void

155:                                              ; preds = %70
  %156 = landingpad { ptr, i32 }
          catch ptr null
  %157 = extractvalue { ptr, i32 } %156, 0
  call void @__clang_call_terminate(ptr %157) #15
  unreachable
}