; Function Attrs: alwaysinline norecurse nounwind uwtable
define internal void @_ZN4ncnnL4lstmERKNS_3MatERS0_iS2_S2_S2_S2_S3_S3_RKNS_6OptionE.omp_outlined.3(ptr noalias noundef readonly captures(none) %0, ptr noalias readnone captures(none) %1, ptr noundef nonnull readonly align 4 captures(none) dereferenceable(4) %2, ptr noundef nonnull readonly align 8 captures(none) dereferenceable(72) %3, ptr noundef nonnull readonly align 8 captures(none) dereferenceable(72) %4, ptr noundef nonnull readonly align 4 captures(none) dereferenceable(4) %5, ptr noundef nonnull readonly align 8 captures(none) dereferenceable(72) %6, ptr noundef nonnull readonly align 8 captures(none) dereferenceable(8) %7, ptr noundef nonnull readonly align 8 captures(none) dereferenceable(72) %8) #9 personality ptr @__gxx_personality_v0 {
  %10 = alloca i32, align 4
  %11 = alloca i32, align 4
  %12 = alloca i32, align 4
  %13 = alloca i32, align 4
  %14 = load i32, ptr %2, align 4, !tbaa !215
  %15 = icmp sgt i32 %14, 0
  br i1 %15, label %16, label %67

16:                                               ; preds = %9
  %17 = add nsw i32 %14, -1
  call void @llvm.lifetime.start.p0(i64 4, ptr nonnull %10) #10
  store i32 0, ptr %10, align 4, !tbaa !215
  call void @llvm.lifetime.start.p0(i64 4, ptr nonnull %11) #10
  store i32 %17, ptr %11, align 4, !tbaa !215
  call void @llvm.lifetime.start.p0(i64 4, ptr nonnull %12) #10
  store i32 1, ptr %12, align 4, !tbaa !215
  call void @llvm.lifetime.start.p0(i64 4, ptr nonnull %13) #10
  store i32 0, ptr %13, align 4, !tbaa !215
  %18 = load i32, ptr %0, align 4, !tbaa !215
  call void @__kmpc_for_static_init_4(ptr nonnull @1, i32 %18, i32 34, ptr nonnull %13, ptr nonnull %10, ptr nonnull %11, ptr nonnull %12, i32 1, i32 1)
  %19 = load i32, ptr %11, align 4, !tbaa !215
  %20 = call i32 @llvm.smin.i32(i32 %19, i32 %17)
  store i32 %20, ptr %11, align 4, !tbaa !215
  %21 = load i32, ptr %10, align 4, !tbaa !215
  %.not42 = icmp sgt i32 %21, %20
  br i1 %.not42, label %._crit_edge, label %.lr.ph

.lr.ph:                                           ; preds = %16
  %22 = load ptr, ptr %3, align 8, !tbaa !16
  %23 = getelementptr inbounds nuw i8, ptr %3, i64 44
  %24 = load i32, ptr %23, align 4, !tbaa !41
  %25 = sext i32 %24 to i64
  %26 = getelementptr inbounds nuw i8, ptr %3, i64 16
  %27 = load i64, ptr %26, align 8, !tbaa !38
  %factor.op.mul = mul i64 %27, %25
  %28 = load ptr, ptr %4, align 8, !tbaa !16
  %29 = load i32, ptr %5, align 4, !tbaa !215
  %30 = load i32, ptr %2, align 4, !tbaa !215
  %31 = icmp eq i32 %29, %30
  %32 = load ptr, ptr %8, align 8
  %33 = load ptr, ptr %6, align 8
  %34 = load ptr, ptr %7, align 8
  %35 = sext i32 %21 to i64
  %36 = add nsw i32 %20, 1
  br label %37

37:                                               ; preds = %.lr.ph, %65
  %indvars.iv = phi i64 [ %35, %.lr.ph ], [ %indvars.iv.next, %65 ]
  %.reass = mul i64 %factor.op.mul, %indvars.iv
  %38 = getelementptr inbounds nuw i8, ptr %22, i64 %.reass
  %39 = load float, ptr %38, align 4, !tbaa !47
  %40 = getelementptr inbounds nuw i8, ptr %38, i64 4
  %41 = load float, ptr %40, align 4, !tbaa !47
  %42 = getelementptr inbounds nuw i8, ptr %38, i64 8
  %43 = load float, ptr %42, align 4, !tbaa !47
  %44 = getelementptr inbounds nuw i8, ptr %38, i64 12
  %45 = load float, ptr %44, align 4, !tbaa !47
  %46 = fneg fast float %39
  %47 = call fast float @llvm.exp.f32(float %46)
  %48 = fadd fast float %47, 1.000000e+00
  %49 = fneg fast float %41
  %50 = call fast float @llvm.exp.f32(float %49)
  %51 = fadd fast float %50, 1.000000e+00
  %52 = fneg fast float %43
  %53 = call fast float @llvm.exp.f32(float %52)
  %54 = fadd fast float %53, 1.000000e+00
  %55 = call fast float @llvm.tanh.f32(float %45)
  %56 = getelementptr inbounds nuw float, ptr %28, i64 %indvars.iv
  %57 = load float, ptr %56, align 4, !tbaa !47
  %58 = fdiv fast float %57, %51
  %59 = fdiv fast float %55, %48
  %60 = fadd fast float %58, %59
  %61 = call fast float @llvm.tanh.f32(float %60)
  %62 = fdiv fast float %61, %54
  store float %60, ptr %56, align 4, !tbaa !47
  br i1 %31, label %63, label %65

63:                                               ; preds = %37
  %64 = getelementptr inbounds nuw float, ptr %33, i64 %indvars.iv
  store float %62, ptr %64, align 4, !tbaa !47
  br label %65

65:                                               ; preds = %37, %63
  %.sink45 = phi ptr [ %34, %63 ], [ %32, %37 ]
  %66 = getelementptr inbounds float, ptr %.sink45, i64 %indvars.iv
  store float %62, ptr %66, align 4, !tbaa !47
  %indvars.iv.next = add nsw i64 %indvars.iv, 1
  %lftr.wideiv = trunc i64 %indvars.iv.next to i32
  %exitcond.not = icmp eq i32 %36, %lftr.wideiv
  br i1 %exitcond.not, label %._crit_edge, label %37

._crit_edge:                                      ; preds = %65, %16
  call void @__kmpc_for_static_fini(ptr nonnull @1, i32 %18)
  call void @llvm.lifetime.end.p0(i64 4, ptr nonnull %13) #10
  call void @llvm.lifetime.end.p0(i64 4, ptr nonnull %12) #10
  call void @llvm.lifetime.end.p0(i64 4, ptr nonnull %11) #10
  call void @llvm.lifetime.end.p0(i64 4, ptr nonnull %10) #10
  br label %67

67:                                               ; preds = %._crit_edge, %9
  ret void
}